; Function Attrs: mustprogress uwtable
define internal void @_ZL23callback_saturateColorsiPv(i32 %0, ptr nocapture readnone %1) #6 {
  %3 = load ptr, ptr @retina, align 8
  %4 = load i32, ptr @colorSaturationFactor, align 4
  %5 = sitofp i32 %4 to float
  %6 = load ptr, ptr %3, align 8
  %7 = getelementptr inbounds i8, ptr %6, i64 208
  %8 = load ptr, ptr %7, align 8
  tail call void %8(ptr noundef nonnull align 8 dereferenceable(8) %3, i1 noundef zeroext true, float noundef %5)
  ret void
}